; Function Attrs: nounwind uwtable
define void @Gia_ManResubTest(ptr noundef %0) local_unnamed_addr #0 {
  %2 = alloca %struct.timespec, align 8
  %3 = alloca %struct.timespec, align 8
  %4 = tail call ptr @Gia_ManDupMuxes(ptr noundef %0, i32 noundef 2) #32
  call void @llvm.lifetime.start.p0(i64 16, ptr nonnull %3) #32
  %5 = call i32 @clock_gettime(i32 noundef 1, ptr noundef nonnull %3) #32
  %6 = icmp slt i32 %5, 0
  br i1 %6, label %Abc_Clock.exit, label %7

7:                                                ; preds = %1
  %8 = load i64, ptr %3, align 8, !tbaa !63
  %.neg8 = mul i64 %8, -1000000
  %9 = getelementptr inbounds nuw i8, ptr %3, i64 8
  %10 = load i64, ptr %9, align 8, !tbaa !65
  %.neg = sdiv i64 %10, -1000
  %.neg9 = add i64 %.neg, %.neg8
  br label %Abc_Clock.exit

Abc_Clock.exit:                                   ; preds = %1, %7
  %.0.i.neg = phi i64 [ %.neg9, %7 ], [ 1, %1 ]
  call void @llvm.lifetime.end.p0(i64 16, ptr nonnull %3) #32
  %11 = call ptr @Gia_ManComputeMffcs(ptr noundef %4, i32 noundef 4, i32 noundef 100, i32 noundef 8, i32 noundef 100)
  call void @Gia_ManAddDivisors(ptr noundef %4, ptr noundef %11)
  %12 = load i32, ptr %11, align 8, !tbaa !39
  %13 = icmp sgt i32 %12, 0
  %14 = getelementptr inbounds nuw i8, ptr %11, i64 8
  %.pre.i.i = load ptr, ptr %14, align 8, !tbaa !40
  br i1 %13, label %.lr.ph.i.i.preheader, label %._crit_edge.i.i

.lr.ph.i.i.preheader:                             ; preds = %Abc_Clock.exit
  %15 = zext nneg i32 %12 to i64
  br label %.lr.ph.i.i

.lr.ph.i.i:                                       ; preds = %.lr.ph.i.i.preheader, %19
  %indvars.iv.i.i = phi i64 [ %indvars.iv.next.i.i, %19 ], [ 0, %.lr.ph.i.i.preheader ]
  %16 = getelementptr inbounds nuw %struct.Vec_Int_t_, ptr %.pre.i.i, i64 %indvars.iv.i.i, i32 2
  %17 = load ptr, ptr %16, align 8, !tbaa !30
  %.not15.i.i = icmp eq ptr %17, null
  br i1 %.not15.i.i, label %19, label %18

18:                                               ; preds = %.lr.ph.i.i
  call void @free(ptr noundef nonnull %17) #32
  store ptr null, ptr %16, align 8, !tbaa !30
  br label %19

19:                                               ; preds = %18, %.lr.ph.i.i
  %indvars.iv.next.i.i = add nuw nsw i64 %indvars.iv.i.i, 1
  %exitcond.not = icmp eq i64 %indvars.iv.next.i.i, %15
  br i1 %exitcond.not, label %._crit_edge.thread.i.i, label %.lr.ph.i.i, !llvm.loop !62

._crit_edge.i.i:                                  ; preds = %Abc_Clock.exit
  %.not.i.i = icmp eq ptr %.pre.i.i, null
  br i1 %.not.i.i, label %Vec_WecFree.exit, label %._crit_edge.thread.i.i

._crit_edge.thread.i.i:                           ; preds = %19, %._crit_edge.i.i
  call void @free(ptr noundef nonnull %.pre.i.i) #32
  br label %Vec_WecFree.exit

Vec_WecFree.exit:                                 ; preds = %._crit_edge.i.i, %._crit_edge.thread.i.i
  call void @free(ptr noundef nonnull %11) #32
  call void @llvm.lifetime.start.p0(i64 16, ptr nonnull %2) #32
  %20 = call i32 @clock_gettime(i32 noundef 1, ptr noundef nonnull %2) #32
  %21 = icmp slt i32 %20, 0
  br i1 %21, label %Abc_Clock.exit7, label %22

22:                                               ; preds = %Vec_WecFree.exit
  %23 = load i64, ptr %2, align 8, !tbaa !63
  %24 = mul nsw i64 %23, 1000000
  %25 = getelementptr inbounds nuw i8, ptr %2, i64 8
  %26 = load i64, ptr %25, align 8, !tbaa !65
  %27 = sdiv i64 %26, 1000
  %28 = add nsw i64 %27, %24
  br label %Abc_Clock.exit7

Abc_Clock.exit7:                                  ; preds = %Vec_WecFree.exit, %22
  %.0.i6 = phi i64 [ %28, %22 ], [ -1, %Vec_WecFree.exit ]
  call void @llvm.lifetime.end.p0(i64 16, ptr nonnull %2) #32
  %29 = add i64 %.0.i6, %.0.i.neg
  call void (i32, ptr, ...) @Abc_Print(i32 poison, ptr noundef nonnull @.str.53, ptr noundef nonnull @.str.7)
  %30 = sitofp i64 %29 to double
  %31 = fdiv double %30, 1.000000e+06
  call void (i32, ptr, ...) @Abc_Print(i32 poison, ptr noundef nonnull @.str.54, double noundef %31)
  call void @Gia_ManStop(ptr noundef %4) #32
  ret void
}